target datalayout = "e-m:e-p270:32:32-p271:32:32-p272:64:64-i64:64-i128:128-f80:128-n8:16:32:64-S128"
target triple = "x86_64-pc-linux-gnu"

%struct._GList = type { ptr, ptr, ptr }

; Function Attrs: nounwind uwtable
define ptr @dt_util_glist_to_str(ptr noundef %0, ptr noundef %1) #0 {
  %3 = alloca ptr, align 8
  %4 = alloca ptr, align 8
  %5 = alloca ptr, align 8
  %6 = alloca i32, align 4
  %7 = alloca ptr, align 8
  %8 = alloca ptr, align 8
  %9 = alloca i32, align 4
  store ptr %0, ptr %4, align 8, !tbaa !6
  store ptr %1, ptr %5, align 8, !tbaa !23
  %10 = load ptr, ptr %5, align 8, !tbaa !23
  %11 = icmp eq ptr %10, null
  br i1 %11, label %12, label %13

12:                                               ; preds = %2
  store ptr null, ptr %3, align 8
  br label %52

13:                                               ; preds = %2
  call void @llvm.lifetime.start.p0(i64 4, ptr %6) #18
  %14 = load ptr, ptr %5, align 8, !tbaa !23
  %15 = call i32 @g_list_length(ptr noundef %14)
  store i32 %15, ptr %6, align 4, !tbaa !15
  call void @llvm.lifetime.start.p0(i64 8, ptr %7) #18
  store ptr null, ptr %7, align 8, !tbaa !6
  call void @llvm.lifetime.start.p0(i64 8, ptr %8) #18
  %16 = load i32, ptr %6, align 4, !tbaa !15
  %17 = add i32 %16, 1
  %18 = zext i32 %17 to i64
  %19 = call noalias ptr @g_malloc0_n(i64 noundef %18, i64 noundef 8) #20
  store ptr %19, ptr %8, align 8, !tbaa !11
  %20 = load ptr, ptr %5, align 8, !tbaa !23
  %21 = icmp ne ptr %20, null
  br i1 %21, label %22, label %46

22:                                               ; preds = %13
  call void @llvm.lifetime.start.p0(i64 4, ptr %9) #18
  store i32 0, ptr %9, align 4, !tbaa !15
  br label %23

23:                                               ; preds = %43, %22
  %24 = load ptr, ptr %5, align 8, !tbaa !23
  %25 = icmp ne ptr %24, null
  br i1 %25, label %26, label %45

26:                                               ; preds = %23
  %27 = load ptr, ptr %5, align 8, !tbaa !23
  %28 = getelementptr inbounds nuw %struct._GList, ptr %27, i32 0, i32 0
  %29 = load ptr, ptr %28, align 8, !tbaa !25
  %30 = load ptr, ptr %8, align 8, !tbaa !11
  %31 = load i32, ptr %9, align 4, !tbaa !15
  %32 = add nsw i32 %31, 1
  store i32 %32, ptr %9, align 4, !tbaa !15
  %33 = sext i32 %31 to i64
  %34 = getelementptr inbounds ptr, ptr %30, i64 %33
  store ptr %29, ptr %34, align 8, !tbaa !6
  br label %35

35:                                               ; preds = %26
  %36 = load ptr, ptr %5, align 8, !tbaa !23
  %37 = icmp ne ptr %36, null
  br i1 %37, label %38, label %42

38:                                               ; preds = %35
  %39 = load ptr, ptr %5, align 8, !tbaa !23
  %40 = getelementptr inbounds nuw %struct._GList, ptr %39, i32 0, i32 1
  %41 = load ptr, ptr %40, align 8, !tbaa !27
  br label %43

42:                                               ; preds = %35
  br label %43

43:                                               ; preds = %42, %38
  %44 = phi ptr [ %41, %38 ], [ null, %42 ]
  store ptr %44, ptr %5, align 8, !tbaa !23
  br label %23

45:                                               ; preds = %23
  call void @llvm.lifetime.end.p0(i64 4, ptr %9) #18
  br label %46

46:                                               ; preds = %45, %13
  %47 = load ptr, ptr %4, align 8, !tbaa !6
  %48 = load ptr, ptr %8, align 8, !tbaa !11
  %49 = call noalias ptr @g_strjoinv(ptr noundef %47, ptr noundef %48)
  store ptr %49, ptr %7, align 8, !tbaa !6
  %50 = load ptr, ptr %8, align 8, !tbaa !11
  call void @g_free(ptr noundef %50)
  %51 = load ptr, ptr %7, align 8, !tbaa !6
  store ptr %51, ptr %3, align 8
  call void @llvm.lifetime.end.p0(i64 8, ptr %8) #18
  call void @llvm.lifetime.end.p0(i64 8, ptr %7) #18
  call void @llvm.lifetime.end.p0(i64 4, ptr %6) #18
  br label %52

52:                                               ; preds = %46, %12
  %53 = load ptr, ptr %3, align 8
  ret ptr %53
}