; Function Attrs: nounwind uwtable
define noalias ptr @dt_util_glist_to_str(ptr noundef %0, ptr noundef %1) local_unnamed_addr #0 {
  %3 = icmp eq ptr %1, null
  br i1 %3, label %16, label %4

4:                                                ; preds = %2
  %5 = tail call i32 @g_list_length(ptr noundef nonnull %1) #27
  %6 = add i32 %5, 1
  %7 = zext i32 %6 to i64
  %8 = tail call noalias ptr @g_malloc0_n(i64 noundef %7, i64 noundef 8) #29
  br label %9

9:                                                ; preds = %4, %9
  %indvars.iv = phi i64 [ 0, %4 ], [ %indvars.iv.next, %9 ]
  %.01517 = phi ptr [ %1, %4 ], [ %13, %9 ]
  %10 = load ptr, ptr %.01517, align 8, !tbaa !12
  %indvars.iv.next = add nuw nsw i64 %indvars.iv, 1
  %11 = getelementptr inbounds nuw ptr, ptr %8, i64 %indvars.iv
  store ptr %10, ptr %11, align 8, !tbaa !6
  %12 = getelementptr inbounds nuw i8, ptr %.01517, i64 8
  %13 = load ptr, ptr %12, align 8, !tbaa !15
  %.not = icmp eq ptr %13, null
  br i1 %.not, label %14, label %9

14:                                               ; preds = %9
  %15 = tail call noalias ptr @g_strjoinv(ptr noundef %0, ptr noundef nonnull %8) #27
  tail call void @g_free(ptr noundef nonnull %8) #27
  br label %16

16:                                               ; preds = %2, %14
  %.014 = phi ptr [ %15, %14 ], [ null, %2 ]
  ret ptr %.014
}